; ModuleID = '44/781.c'
source_filename = "44/781.c"
target datalayout = "e-m:e-p270:32:32-p271:32:32-p272:64:64-i64:64-f80:128-n8:16:32:64-S128"
target triple = "x86_64-pc-linux-gnu"

@.str = private unnamed_addr constant [3 x i8] c"%d\00", align 1
@.str.1 = private unnamed_addr constant [4 x i8] c"%d\0A\00", align 1

; Function Attrs: noinline nounwind uwtable
define dso_local i32 @main() #0 {
  %1 = alloca i32, align 4
  %2 = alloca i32, align 4
  %3 = alloca i32, align 4
  %4 = alloca i32, align 4
  store i32 0, i32* %1, align 4
  store i32 1, i32* %2, align 4
  br label %5

5:                                                ; preds = %14, %0
  %6 = load i32, i32* %2, align 4
  %7 = icmp sle i32 %6, 6
  br i1 %7, label %8, label %17

8:                                                ; preds = %5
  %9 = call i32 (i8*, ...) @__isoc99_scanf(i8* getelementptr inbounds ([3 x i8], [3 x i8]* @.str, i64 0, i64 0), i32* %3)
  %10 = load i32, i32* %3, align 4
  %11 = call i32 @reverse(i32 %10)
  store i32 %11, i32* %4, align 4
  %12 = load i32, i32* %4, align 4
  %13 = call i32 (i8*, ...) @printf(i8* getelementptr inbounds ([4 x i8], [4 x i8]* @.str.1, i64 0, i64 0), i32 %12)
  br label %14

14:                                               ; preds = %8
  %15 = load i32, i32* %2, align 4
  %16 = add nsw i32 %15, 1
  store i32 %16, i32* %2, align 4
  br label %5

17:                                               ; preds = %5
  ret i32 0
}

declare dso_local i32 @__isoc99_scanf(i8*, ...) #1

; Function Attrs: noinline nounwind uwtable
define dso_local i32 @reverse(i32 %0) #0 {
  %2 = alloca i32, align 4
  %3 = alloca i32, align 4
  %4 = alloca i32, align 4
  %5 = alloca i32, align 4
  store i32 %0, i32* %2, align 4
  store i32 0, i32* %5, align 4
  %6 = load i32, i32* %2, align 4
  %7 = call i32 @abs(i32 %6) #3
  store i32 %7, i32* %3, align 4
  br label %8

8:                                                ; preds = %11, %1
  %9 = load i32, i32* %3, align 4
  %10 = icmp sgt i32 %9, 0
  br i1 %10, label %11, label %19

11:                                               ; preds = %8
  %12 = load i32, i32* %5, align 4
  %13 = mul nsw i32 %12, 10
  %14 = load i32, i32* %3, align 4
  %15 = srem i32 %14, 10
  %16 = add nsw i32 %13, %15
  store i32 %16, i32* %5, align 4
  %17 = load i32, i32* %3, align 4
  %18 = sdiv i32 %17, 10
  store i32 %18, i32* %3, align 4
  br label %8

19:                                               ; preds = %8
  %20 = load i32, i32* %2, align 4
  %21 = icmp sge i32 %20, 0
  %22 = zext i1 %21 to i64
  %23 = select i1 %21, i32 1, i32 -1
  store i32 %23, i32* %4, align 4
  %24 = load i32, i32* %4, align 4
  %25 = load i32, i32* %5, align 4
  %26 = mul nsw i32 %24, %25
  store i32 %26, i32* %5, align 4
  %27 = load i32, i32* %5, align 4
  ret i32 %27
}

declare dso_local i32 @printf(i8*, ...) #1

; Function Attrs: nounwind readnone
declare dso_local i32 @abs(i32) #2


!llvm.module.flags = !{!0}
!llvm.ident = !{!1}

!0 = !{i32 1, !"wchar_size", i32 4}
!1 = !{!"clang version 10.0.0-4ubuntu1 "}
